; Function Attrs: mustprogress uwtable
define dso_local void @_ZN7msdfgen9rasterizeERKNS_9BitmapRefIfLi1EEERKNS_5ShapeERKNS_10ProjectionENS_8FillRuleE(ptr noundef nonnull readonly align 8 captures(none) dereferenceable(16) %output, ptr noundef nonnull align 8 dereferenceable(25) %shape, ptr noundef nonnull align 8 dereferenceable(32) %projection, i32 noundef %fillRule) local_unnamed_addr #0 personality ptr @__gxx_personality_v0 {
entry:
  %scanline = alloca %"class.msdfgen::Scanline", align 8
  call void @_ZN7msdfgen8ScanlineC1Ev(ptr noundef nonnull align 8 dereferenceable(28) %scanline)
  %height = getelementptr inbounds nuw i8, ptr %output, i64 12
  %0 = load i32, ptr %height, align 4
  %cmp20 = icmp sgt i32 %0, 0
  br i1 %cmp20, label %for.body.lr.ph, label %for.end18

for.body.lr.ph:                                   ; preds = %entry
  %inverseYAxis = getelementptr inbounds nuw i8, ptr %shape, i64 24
  %width = getelementptr inbounds nuw i8, ptr %output, i64 8
  br label %for.body

for.body:                                         ; preds = %for.body.lr.ph, %for.inc16
  %1 = phi i32 [ %0, %for.body.lr.ph ], [ %9, %for.inc16 ]
  %y.021 = phi i32 [ 0, %for.body.lr.ph ], [ %inc17, %for.inc16 ]
  %2 = load i8, ptr %inverseYAxis, align 8
  %tobool = trunc i8 %2 to i1
  %3 = xor i32 %y.021, -1
  %sub2 = add i32 %1, %3
  %cond = select i1 %tobool, i32 %sub2, i32 %y.021
  %conv = uitofp nneg i32 %y.021 to double
  %add = fadd double %conv, 5.000000e-01
  %call = invoke noundef double @_ZNK7msdfgen10Projection10unprojectYEd(ptr noundef nonnull align 8 dereferenceable(32) %projection, double noundef %add)
          to label %invoke.cont unwind label %lpad.loopexit.split-lp

invoke.cont:                                      ; preds = %for.body
  invoke void @_ZNK7msdfgen5Shape8scanlineERNS_8ScanlineEd(ptr noundef nonnull align 8 dereferenceable(25) %shape, ptr noundef nonnull align 8 dereferenceable(28) %scanline, double noundef %call)
          to label %for.cond4.preheader unwind label %lpad.loopexit.split-lp

for.cond4.preheader:                              ; preds = %invoke.cont
  %4 = load i32, ptr %width, align 8
  %cmp518 = icmp sgt i32 %4, 0
  br i1 %cmp518, label %for.body6, label %for.inc16

for.body6:                                        ; preds = %for.cond4.preheader, %invoke.cont11
  %x.019 = phi i32 [ %inc, %invoke.cont11 ], [ 0, %for.cond4.preheader ]
  %conv7 = uitofp nneg i32 %x.019 to double
  %add8 = fadd double %conv7, 5.000000e-01
  %call10 = invoke noundef double @_ZNK7msdfgen10Projection10unprojectXEd(ptr noundef nonnull align 8 dereferenceable(32) %projection, double noundef %add8)
          to label %invoke.cont9 unwind label %lpad.loopexit

invoke.cont9:                                     ; preds = %for.body6
  %call12 = invoke noundef zeroext i1 @_ZNK7msdfgen8Scanline6filledEdNS_8FillRuleE(ptr noundef nonnull align 8 dereferenceable(28) %scanline, double noundef %call10, i32 noundef %fillRule)
          to label %invoke.cont11 unwind label %lpad.loopexit

invoke.cont11:                                    ; preds = %invoke.cont9
  %conv13 = uitofp i1 %call12 to float
  %5 = load ptr, ptr %output, align 8
  %6 = load i32, ptr %width, align 8
  %mul.i = mul nsw i32 %6, %cond
  %add.i = add nsw i32 %mul.i, %x.019
  %idx.ext.i = sext i32 %add.i to i64
  %add.ptr.i = getelementptr inbounds float, ptr %5, i64 %idx.ext.i
  store float %conv13, ptr %add.ptr.i, align 4
  %inc = add nuw nsw i32 %x.019, 1
  %7 = load i32, ptr %width, align 8
  %cmp5 = icmp slt i32 %inc, %7
  br i1 %cmp5, label %for.body6, label %for.inc16, !llvm.loop !5

lpad.loopexit:                                    ; preds = %for.body6, %invoke.cont9
  %lpad.loopexit16 = landingpad { ptr, i32 }
          cleanup
  br label %lpad

lpad.loopexit.split-lp:                           ; preds = %for.body, %invoke.cont
  %lpad.loopexit.split-lp17 = landingpad { ptr, i32 }
          cleanup
  br label %lpad

lpad:                                             ; preds = %lpad.loopexit.split-lp, %lpad.loopexit
  %lpad.phi = phi { ptr, i32 } [ %lpad.loopexit16, %lpad.loopexit ], [ %lpad.loopexit.split-lp17, %lpad.loopexit.split-lp ]
  %8 = load ptr, ptr %scanline, align 8
  %tobool.not.i.i.i.i = icmp eq ptr %8, null
  br i1 %tobool.not.i.i.i.i, label %_ZN7msdfgen8ScanlineD2Ev.exit, label %if.then.i.i.i.i

if.then.i.i.i.i:                                  ; preds = %lpad
  call void @_ZdlPv(ptr noundef nonnull %8) #9
  br label %_ZN7msdfgen8ScanlineD2Ev.exit

_ZN7msdfgen8ScanlineD2Ev.exit:                    ; preds = %lpad, %if.then.i.i.i.i
  resume { ptr, i32 } %lpad.phi

for.inc16:                                        ; preds = %invoke.cont11, %for.cond4.preheader
  %inc17 = add nuw nsw i32 %y.021, 1
  %9 = load i32, ptr %height, align 4
  %cmp = icmp slt i32 %inc17, %9
  br i1 %cmp, label %for.body, label %for.end18, !llvm.loop !7

for.end18:                                        ; preds = %for.inc16, %entry
  %10 = load ptr, ptr %scanline, align 8
  %tobool.not.i.i.i.i13 = icmp eq ptr %10, null
  br i1 %tobool.not.i.i.i.i13, label %_ZN7msdfgen8ScanlineD2Ev.exit15, label %if.then.i.i.i.i14

if.then.i.i.i.i14:                                ; preds = %for.end18
  call void @_ZdlPv(ptr noundef nonnull %10) #9
  br label %_ZN7msdfgen8ScanlineD2Ev.exit15

_ZN7msdfgen8ScanlineD2Ev.exit15:                  ; preds = %for.end18, %if.then.i.i.i.i14
  ret void
}